target datalayout = "e-m:e-p270:32:32-p271:32:32-p272:64:64-i64:64-i128:128-f80:128-n8:16:32:64-S128"
target triple = "x86_64-unknown-linux-gnu"

%struct.email_key_mapping = type { ptr, ptr }
%struct.grpc_jwt_verifier = type { ptr, i64, i64 }

; Function Attrs: mustprogress uwtable
define void @_Z25grpc_jwt_verifier_destroyP17grpc_jwt_verifier(ptr noundef %v) #5 {
entry:
  %v.addr = alloca ptr, align 8
  %i = alloca i64, align 8
  store ptr %v, ptr %v.addr, align 8
  %0 = load ptr, ptr %v.addr, align 8
  %cmp = icmp eq ptr %0, null
  br i1 %cmp, label %if.then, label %if.end

if.then:                                          ; preds = %entry
  br label %return

if.end:                                           ; preds = %entry
  %1 = load ptr, ptr %v.addr, align 8
  %mappings = getelementptr inbounds %struct.grpc_jwt_verifier, ptr %1, i32 0, i32 0
  %2 = load ptr, ptr %mappings, align 8
  %cmp1 = icmp ne ptr %2, null
  br i1 %cmp1, label %if.then2, label %if.end8

if.then2:                                         ; preds = %if.end
  store i64 0, ptr %i, align 8
  br label %for.cond

for.cond:                                         ; preds = %for.inc, %if.then2
  %3 = load i64, ptr %i, align 8
  %4 = load ptr, ptr %v.addr, align 8
  %num_mappings = getelementptr inbounds %struct.grpc_jwt_verifier, ptr %4, i32 0, i32 1
  %5 = load i64, ptr %num_mappings, align 8
  %cmp3 = icmp ult i64 %3, %5
  br i1 %cmp3, label %for.body, label %for.end

for.body:                                         ; preds = %for.cond
  %6 = load ptr, ptr %v.addr, align 8
  %mappings4 = getelementptr inbounds %struct.grpc_jwt_verifier, ptr %6, i32 0, i32 0
  %7 = load ptr, ptr %mappings4, align 8
  %8 = load i64, ptr %i, align 8
  %arrayidx = getelementptr inbounds %struct.email_key_mapping, ptr %7, i64 %8
  %email_domain = getelementptr inbounds %struct.email_key_mapping, ptr %arrayidx, i32 0, i32 0
  %9 = load ptr, ptr %email_domain, align 8
  call void @gpr_free(ptr noundef %9)
  %10 = load ptr, ptr %v.addr, align 8
  %mappings5 = getelementptr inbounds %struct.grpc_jwt_verifier, ptr %10, i32 0, i32 0
  %11 = load ptr, ptr %mappings5, align 8
  %12 = load i64, ptr %i, align 8
  %arrayidx6 = getelementptr inbounds %struct.email_key_mapping, ptr %11, i64 %12
  %key_url_prefix = getelementptr inbounds %struct.email_key_mapping, ptr %arrayidx6, i32 0, i32 1
  %13 = load ptr, ptr %key_url_prefix, align 8
  call void @gpr_free(ptr noundef %13)
  br label %for.inc

for.inc:                                          ; preds = %for.body
  %14 = load i64, ptr %i, align 8
  %inc = add i64 %14, 1
  store i64 %inc, ptr %i, align 8
  br label %for.cond, !llvm.loop !7

for.end:                                          ; preds = %for.cond
  %15 = load ptr, ptr %v.addr, align 8
  %mappings7 = getelementptr inbounds %struct.grpc_jwt_verifier, ptr %15, i32 0, i32 0
  %16 = load ptr, ptr %mappings7, align 8
  call void @gpr_free(ptr noundef %16)
  br label %if.end8

if.end8:                                          ; preds = %for.end, %if.end
  %17 = load ptr, ptr %v.addr, align 8
  call void @gpr_free(ptr noundef %17)
  br label %return

return:                                           ; preds = %if.end8, %if.then
  ret void
}