; Function Attrs: mustprogress uwtable
define void @_Z25grpc_jwt_verifier_destroyP17grpc_jwt_verifier(ptr noundef %v) local_unnamed_addr #4 {
entry:
  %cmp = icmp eq ptr %v, null
  br i1 %cmp, label %return, label %if.end

if.end:                                           ; preds = %entry
  %0 = load ptr, ptr %v, align 8
  %cmp1.not = icmp eq ptr %0, null
  br i1 %cmp1.not, label %if.end8, label %for.cond.preheader

for.cond.preheader:                               ; preds = %if.end
  %num_mappings = getelementptr inbounds i8, ptr %v, i64 8
  %1 = load i64, ptr %num_mappings, align 8
  %cmp310.not = icmp eq i64 %1, 0
  br i1 %cmp310.not, label %for.end, label %for.body

for.body:                                         ; preds = %for.cond.preheader, %for.body
  %i.011 = phi i64 [ %inc, %for.body ], [ 0, %for.cond.preheader ]
  %2 = load ptr, ptr %v, align 8
  %arrayidx = getelementptr inbounds %struct.email_key_mapping, ptr %2, i64 %i.011
  %3 = load ptr, ptr %arrayidx, align 8
  tail call void @gpr_free(ptr noundef %3)
  %4 = load ptr, ptr %v, align 8
  %key_url_prefix = getelementptr inbounds %struct.email_key_mapping, ptr %4, i64 %i.011, i32 1
  %5 = load ptr, ptr %key_url_prefix, align 8
  tail call void @gpr_free(ptr noundef %5)
  %inc = add nuw i64 %i.011, 1
  %6 = load i64, ptr %num_mappings, align 8
  %cmp3 = icmp ult i64 %inc, %6
  br i1 %cmp3, label %for.body, label %for.end.loopexit, !llvm.loop !10

for.end.loopexit:                                 ; preds = %for.body
  %.pre = load ptr, ptr %v, align 8
  br label %for.end

for.end:                                          ; preds = %for.end.loopexit, %for.cond.preheader
  %7 = phi ptr [ %.pre, %for.end.loopexit ], [ %0, %for.cond.preheader ]
  tail call void @gpr_free(ptr noundef %7)
  br label %if.end8

if.end8:                                          ; preds = %for.end, %if.end
  tail call void @gpr_free(ptr noundef nonnull %v)
  br label %return

return:                                           ; preds = %entry, %if.end8
  ret void
}